target datalayout = "e-m:e-p270:32:32-p271:32:32-p272:64:64-i64:64-i128:128-f80:128-n8:16:32:64-S128"
target triple = "x86_64-pc-linux-gnu"

%struct.SlruCtlData = type { ptr, i16, i8, i32, ptr, [64 x i8] }
%union.LWLockPadded = type { %struct.LWLock, [112 x i8] }
%struct.LWLock = type { i16, %struct.pg_atomic_uint32, %struct.proclist_head }
%struct.pg_atomic_uint32 = type { i32 }
%struct.proclist_head = type { i32, i32 }
%struct.TransamVariablesData = type { i32, i32, %struct.FullTransactionId, i32, i32, i32, i32, i32, i32, i32, i32, %struct.FullTransactionId, i64, i32 }
%struct.FullTransactionId = type { i64 }
%struct.SlruSharedData = type { i32, ptr, ptr, ptr, ptr, ptr, ptr, ptr, ptr, ptr, i32, %struct.pg_atomic_uint64, i32 }
%struct.pg_atomic_uint64 = type { i64 }
%struct.xl_commit_ts_truncate = type { i64, i32 }
%struct.XLogReaderState = type { %struct.XLogReaderRoutine, i64, ptr, i64, i64, i64, i64, i64, i64, i64, i64, ptr, ptr, i64, i8, ptr, ptr, ptr, ptr, ptr, i32, %struct.WALSegmentContext, %struct.WALOpenSegment, i32, i64, i32, i64, i32, i64, i32, ptr, i32, ptr, i8, i8 }
%struct.XLogReaderRoutine = type { ptr, ptr, ptr }
%struct.WALSegmentContext = type { [1024 x i8], i32 }
%struct.WALOpenSegment = type { i32, i64, i32 }
%struct.DecodedXLogRecord = type { i64, i8, ptr, i64, i64, %struct.XLogRecord, i16, i32, ptr, i32, i32, [0 x %struct.DecodedBkpBlock] }
%struct.XLogRecord = type { i32, i32, i64, i8, i8, i32 }
%struct.DecodedBkpBlock = type { i8, %struct.RelFileLocator, i32, i32, i32, i8, i8, i8, ptr, i16, i16, i16, i8, i8, ptr, i16, i16 }
%struct.RelFileLocator = type { i32, i32, i32 }

@MainLWLockArray = external global ptr, align 8
@TransamVariables = external global ptr, align 8
@.str.1 = private unnamed_addr constant [12 x i8] c"commit_ts.c\00", align 1
@CommitTsCtlData = internal global %struct.SlruCtlData zeroinitializer, align 8
@.str.8 = private unnamed_addr constant [35 x i8] c"commit_ts_redo: unknown op code %u\00", align 1
@__func__.commit_ts_redo = private unnamed_addr constant [15 x i8] c"commit_ts_redo\00", align 1

; Function Attrs: inlinehint nounwind uwtable
define internal void @pg_atomic_write_u64_impl(ptr noundef %0, i64 noundef %1) #2 {
  %3 = alloca ptr, align 8
  %4 = alloca i64, align 8
  store ptr %0, ptr %3, align 8
  store i64 %1, ptr %4, align 8
  %5 = load i64, ptr %4, align 8
  %6 = load ptr, ptr %3, align 8
  %7 = getelementptr inbounds nuw %struct.pg_atomic_uint64, ptr %6, i32 0, i32 0
  store volatile i64 %5, ptr %7, align 8
  ret void
}

; Function Attrs: nounwind uwtable
define internal void @WriteZeroPageXlogRec(i64 noundef %0) #0 {
  %2 = alloca i64, align 8
  store i64 %0, ptr %2, align 8
  call void @XLogBeginInsert()
  call void @XLogRegisterData(ptr noundef %2, i32 noundef 8)
  %3 = call i64 @XLogInsert(i8 noundef zeroext 18, i8 noundef zeroext 0)
  ret void
}

; Function Attrs: inlinehint nounwind uwtable
define internal void @pg_atomic_write_u64(ptr noundef %0, i64 noundef %1) #2 {
  %3 = alloca ptr, align 8
  %4 = alloca i64, align 8
  store ptr %0, ptr %3, align 8
  store i64 %1, ptr %4, align 8
  %5 = load ptr, ptr %3, align 8
  %6 = load i64, ptr %4, align 8
  call void @pg_atomic_write_u64_impl(ptr noundef %5, i64 noundef %6)
  ret void
}

; Function Attrs: nounwind uwtable
define dso_local void @AdvanceOldestCommitTsXid(i32 noundef %0) #0 {
  %2 = alloca i32, align 4
  store i32 %0, ptr %2, align 4
  %3 = load ptr, ptr @MainLWLockArray, align 8
  %4 = getelementptr inbounds %union.LWLockPadded, ptr %3, i64 39
  %5 = call zeroext i1 @LWLockAcquire(ptr noundef %4, i32 noundef 0)
  %6 = load ptr, ptr @TransamVariables, align 8
  %7 = getelementptr inbounds nuw %struct.TransamVariablesData, ptr %6, i32 0, i32 9
  %8 = load i32, ptr %7, align 8
  %9 = icmp ne i32 %8, 0
  br i1 %9, label %10, label %20

10:                                               ; preds = %1
  %11 = load ptr, ptr @TransamVariables, align 8
  %12 = getelementptr inbounds nuw %struct.TransamVariablesData, ptr %11, i32 0, i32 9
  %13 = load i32, ptr %12, align 8
  %14 = load i32, ptr %2, align 4
  %15 = call zeroext i1 @TransactionIdPrecedes(i32 noundef %13, i32 noundef %14)
  br i1 %15, label %16, label %20

16:                                               ; preds = %10
  %17 = load i32, ptr %2, align 4
  %18 = load ptr, ptr @TransamVariables, align 8
  %19 = getelementptr inbounds nuw %struct.TransamVariablesData, ptr %18, i32 0, i32 9
  store i32 %17, ptr %19, align 8
  br label %20

20:                                               ; preds = %16, %10, %1
  %21 = load ptr, ptr @MainLWLockArray, align 8
  %22 = getelementptr inbounds %union.LWLockPadded, ptr %21, i64 39
  call void @LWLockRelease(ptr noundef %22)
  ret void
}

; Function Attrs: nounwind uwtable
define internal i32 @ZeroCommitTsPage(i64 noundef %0, i1 noundef zeroext %1) #0 {
  %3 = alloca i64, align 8
  %4 = alloca i8, align 1
  %5 = alloca i32, align 4
  store i64 %0, ptr %3, align 8
  %6 = zext i1 %1 to i8
  store i8 %6, ptr %4, align 1
  call void @llvm.lifetime.start.p0(i64 4, ptr %5) #7
  %7 = load i64, ptr %3, align 8
  %8 = call i32 @SimpleLruZeroPage(ptr noundef @CommitTsCtlData, i64 noundef %7)
  store i32 %8, ptr %5, align 4
  %9 = load i8, ptr %4, align 1, !range !4, !noundef !5
  %10 = trunc i8 %9 to i1
  br i1 %10, label %11, label %13

11:                                               ; preds = %2
  %12 = load i64, ptr %3, align 8
  call void @WriteZeroPageXlogRec(i64 noundef %12)
  br label %13

13:                                               ; preds = %11, %2
  %14 = load i32, ptr %5, align 4
  call void @llvm.lifetime.end.p0(i64 4, ptr %5) #7
  ret i32 %14
}

; Function Attrs: inlinehint nounwind uwtable
define internal ptr @SimpleLruGetBankLock(ptr noundef %0, i64 noundef %1) #2 {
  %3 = alloca ptr, align 8
  %4 = alloca i64, align 8
  %5 = alloca i32, align 4
  store ptr %0, ptr %3, align 8
  store i64 %1, ptr %4, align 8
  call void @llvm.lifetime.start.p0(i64 4, ptr %5) #7
  %6 = load i64, ptr %4, align 8
  %7 = load ptr, ptr %3, align 8
  %8 = getelementptr inbounds nuw %struct.SlruCtlData, ptr %7, i32 0, i32 1
  %9 = load i16, ptr %8, align 8
  %10 = zext i16 %9 to i64
  %11 = srem i64 %6, %10
  %12 = trunc i64 %11 to i32
  store i32 %12, ptr %5, align 4
  %13 = load ptr, ptr %3, align 8
  %14 = getelementptr inbounds nuw %struct.SlruCtlData, ptr %13, i32 0, i32 0
  %15 = load ptr, ptr %14, align 8
  %16 = getelementptr inbounds nuw %struct.SlruSharedData, ptr %15, i32 0, i32 7
  %17 = load ptr, ptr %16, align 8
  %18 = load i32, ptr %5, align 4
  %19 = sext i32 %18 to i64
  %20 = getelementptr inbounds %union.LWLockPadded, ptr %17, i64 %19
  call void @llvm.lifetime.end.p0(i64 4, ptr %5) #7
  ret ptr %20
}

; Function Attrs: nounwind uwtable
define dso_local void @commit_ts_redo(ptr noundef %0) #0 {
  %2 = alloca ptr, align 8
  %3 = alloca i8, align 1
  %4 = alloca i64, align 8
  %5 = alloca i32, align 4
  %6 = alloca ptr, align 8
  %7 = alloca ptr, align 8
  store ptr %0, ptr %2, align 8
  call void @llvm.lifetime.start.p0(i64 1, ptr %3) #7
  %8 = load ptr, ptr %2, align 8
  %9 = getelementptr inbounds nuw %struct.XLogReaderState, ptr %8, i32 0, i32 11
  %10 = load ptr, ptr %9, align 8
  %11 = getelementptr inbounds nuw %struct.DecodedXLogRecord, ptr %10, i32 0, i32 5
  %12 = getelementptr inbounds nuw %struct.XLogRecord, ptr %11, i32 0, i32 3
  %13 = load i8, ptr %12, align 8
  %14 = zext i8 %13 to i32
  %15 = and i32 %14, -16
  %16 = trunc i32 %15 to i8
  store i8 %16, ptr %3, align 1
  %17 = load i8, ptr %3, align 1
  %18 = zext i8 %17 to i32
  %19 = icmp eq i32 %18, 0
  br i1 %19, label %20, label %34

20:                                               ; preds = %1
  call void @llvm.lifetime.start.p0(i64 8, ptr %4) #7
  call void @llvm.lifetime.start.p0(i64 4, ptr %5) #7
  call void @llvm.lifetime.start.p0(i64 8, ptr %6) #7
  %21 = load ptr, ptr %2, align 8
  %22 = getelementptr inbounds nuw %struct.XLogReaderState, ptr %21, i32 0, i32 11
  %23 = load ptr, ptr %22, align 8
  %24 = getelementptr inbounds nuw %struct.DecodedXLogRecord, ptr %23, i32 0, i32 8
  %25 = load ptr, ptr %24, align 8
  call void @llvm.memcpy.p0.p0.i64(ptr align 8 %4, ptr align 1 %25, i64 8, i1 false)
  %26 = load i64, ptr %4, align 8
  %27 = call ptr @SimpleLruGetBankLock(ptr noundef @CommitTsCtlData, i64 noundef %26)
  store ptr %27, ptr %6, align 8
  %28 = load ptr, ptr %6, align 8
  %29 = call zeroext i1 @LWLockAcquire(ptr noundef %28, i32 noundef 0)
  %30 = load i64, ptr %4, align 8
  %31 = call i32 @ZeroCommitTsPage(i64 noundef %30, i1 noundef zeroext false)
  store i32 %31, ptr %5, align 4
  %32 = load i32, ptr %5, align 4
  call void @SimpleLruWritePage(ptr noundef @CommitTsCtlData, i32 noundef %32)
  %33 = load ptr, ptr %6, align 8
  call void @LWLockRelease(ptr noundef %33)
  call void @llvm.lifetime.end.p0(i64 8, ptr %6) #7
  call void @llvm.lifetime.end.p0(i64 4, ptr %5) #7
  call void @llvm.lifetime.end.p0(i64 8, ptr %4) #7
  br label %69

34:                                               ; preds = %1
  %35 = load i8, ptr %3, align 1
  %36 = zext i8 %35 to i32
  %37 = icmp eq i32 %36, 16
  br i1 %37, label %38, label %55

38:                                               ; preds = %34
  call void @llvm.lifetime.start.p0(i64 8, ptr %7) #7
  %39 = load ptr, ptr %2, align 8
  %40 = getelementptr inbounds nuw %struct.XLogReaderState, ptr %39, i32 0, i32 11
  %41 = load ptr, ptr %40, align 8
  %42 = getelementptr inbounds nuw %struct.DecodedXLogRecord, ptr %41, i32 0, i32 8
  %43 = load ptr, ptr %42, align 8
  store ptr %43, ptr %7, align 8
  %44 = load ptr, ptr %7, align 8
  %45 = getelementptr inbounds nuw %struct.xl_commit_ts_truncate, ptr %44, i32 0, i32 1
  %46 = load i32, ptr %45, align 8
  call void @AdvanceOldestCommitTsXid(i32 noundef %46)
  %47 = load ptr, ptr @CommitTsCtlData, align 8
  %48 = getelementptr inbounds nuw %struct.SlruSharedData, ptr %47, i32 0, i32 11
  %49 = load ptr, ptr %7, align 8
  %50 = getelementptr inbounds nuw %struct.xl_commit_ts_truncate, ptr %49, i32 0, i32 0
  %51 = load i64, ptr %50, align 8
  call void @pg_atomic_write_u64(ptr noundef %48, i64 noundef %51)
  %52 = load ptr, ptr %7, align 8
  %53 = getelementptr inbounds nuw %struct.xl_commit_ts_truncate, ptr %52, i32 0, i32 0
  %54 = load i64, ptr %53, align 8
  call void @SimpleLruTruncate(ptr noundef @CommitTsCtlData, i64 noundef %54)
  call void @llvm.lifetime.end.p0(i64 8, ptr %7) #7
  br label %68

55:                                               ; preds = %34
  br label %56

56:                                               ; preds = %55
  br i1 true, label %57, label %59

57:                                               ; preds = %56
  %58 = call zeroext i1 @errstart_cold(i32 noundef 23, ptr noundef null) #8
  br i1 %58, label %61, label %65

59:                                               ; preds = %56
  %60 = call zeroext i1 @errstart(i32 noundef 23, ptr noundef null)
  br i1 %60, label %61, label %65

61:                                               ; preds = %59, %57
  %62 = load i8, ptr %3, align 1
  %63 = zext i8 %62 to i32
  %64 = call i32 (ptr, ...) @errmsg_internal(ptr noundef @.str.8, i32 noundef %63)
  call void @errfinish(ptr noundef @.str.1, i32 noundef 1056, ptr noundef @__func__.commit_ts_redo)
  br label %65

65:                                               ; preds = %61, %59, %57
  unreachable

66:                                               ; No predecessors!
  br label %67

67:                                               ; preds = %66
  br label %68

68:                                               ; preds = %67, %38
  br label %69

69:                                               ; preds = %68, %20
  call void @llvm.lifetime.end.p0(i64 1, ptr %3) #7
  ret void
}