; Function Attrs: nounwind uwtable
define dso_local void @commit_ts_redo(ptr noundef readonly captures(none) %0) local_unnamed_addr #0 {
  %2 = getelementptr inbounds nuw i8, ptr %0, i64 104
  %3 = load ptr, ptr %2, align 8
  %4 = getelementptr inbounds nuw i8, ptr %3, i64 56
  %5 = load i8, ptr %4, align 8
  %6 = and i8 %5, -16
  switch i8 %6, label %41 [
    i8 0, label %7
    i8 16, label %20
  ]

7:                                                ; preds = %1
  %8 = getelementptr inbounds nuw i8, ptr %3, i64 72
  %9 = load ptr, ptr %8, align 8
  %.0.copyload = load i64, ptr %9, align 1
  %10 = load i16, ptr getelementptr inbounds nuw (i8, ptr @CommitTsCtlData, i64 8), align 8
  %11 = zext i16 %10 to i64
  %12 = srem i64 %.0.copyload, %11
  %13 = load ptr, ptr @CommitTsCtlData, align 8
  %14 = getelementptr inbounds nuw i8, ptr %13, i64 56
  %15 = load ptr, ptr %14, align 8
  %16 = shl nsw i64 %12, 7
  %17 = getelementptr inbounds i8, ptr %15, i64 %16
  %18 = tail call zeroext i1 @LWLockAcquire(ptr noundef %17, i32 noundef 0) #9
  %19 = tail call i32 @SimpleLruZeroPage(ptr noundef nonnull @CommitTsCtlData, i64 noundef %.0.copyload) #9
  tail call void @SimpleLruWritePage(ptr noundef nonnull @CommitTsCtlData, i32 noundef %19) #9
  tail call void @LWLockRelease(ptr noundef %17) #9
  br label %45

20:                                               ; preds = %1
  %21 = getelementptr inbounds nuw i8, ptr %3, i64 72
  %22 = load ptr, ptr %21, align 8
  %23 = getelementptr inbounds nuw i8, ptr %22, i64 8
  %24 = load i32, ptr %23, align 8
  %25 = load ptr, ptr @MainLWLockArray, align 8
  %26 = getelementptr inbounds nuw i8, ptr %25, i64 4992
  %27 = tail call zeroext i1 @LWLockAcquire(ptr noundef nonnull %26, i32 noundef 0) #9
  %28 = load ptr, ptr @TransamVariables, align 8
  %29 = getelementptr inbounds nuw i8, ptr %28, i64 40
  %30 = load i32, ptr %29, align 8
  %.not.i = icmp eq i32 %30, 0
  br i1 %.not.i, label %AdvanceOldestCommitTsXid.exit, label %31

31:                                               ; preds = %20
  %32 = tail call zeroext i1 @TransactionIdPrecedes(i32 noundef %30, i32 noundef %24) #9
  br i1 %32, label %33, label %AdvanceOldestCommitTsXid.exit

33:                                               ; preds = %31
  %34 = load ptr, ptr @TransamVariables, align 8
  %35 = getelementptr inbounds nuw i8, ptr %34, i64 40
  store i32 %24, ptr %35, align 8
  br label %AdvanceOldestCommitTsXid.exit

AdvanceOldestCommitTsXid.exit:                    ; preds = %20, %31, %33
  %36 = load ptr, ptr @MainLWLockArray, align 8
  %37 = getelementptr inbounds nuw i8, ptr %36, i64 4992
  tail call void @LWLockRelease(ptr noundef nonnull %37) #9
  %38 = load ptr, ptr @CommitTsCtlData, align 8
  %39 = getelementptr inbounds nuw i8, ptr %38, i64 88
  %40 = load i64, ptr %22, align 8
  store volatile i64 %40, ptr %39, align 8
  tail call void @SimpleLruTruncate(ptr noundef nonnull @CommitTsCtlData, i64 noundef %40) #9
  br label %45

41:                                               ; preds = %1
  %42 = zext i8 %6 to i32
  %43 = tail call zeroext i1 @errstart_cold(i32 noundef 23, ptr noundef null) #10
  tail call void @llvm.assume(i1 %43)
  %44 = tail call i32 (ptr, ...) @errmsg_internal(ptr noundef nonnull @.str.8, i32 noundef %42) #9
  tail call void @errfinish(ptr noundef nonnull @.str.1, i32 noundef 1056, ptr noundef nonnull @__func__.commit_ts_redo) #9
  unreachable

45:                                               ; preds = %AdvanceOldestCommitTsXid.exit, %7
  ret void
}